target datalayout = "e-m:e-p270:32:32-p271:32:32-p272:64:64-i64:64-i128:128-f80:128-n8:16:32:64-S128"
target triple = "x86_64-pc-linux-gnu"

%struct.AVFilterContext = type { ptr, ptr, ptr, ptr, ptr, i32, ptr, ptr, i32, ptr, ptr, i32, i32, ptr, ptr, ptr, ptr, i32, ptr, i32, i32 }
%struct.VIFContext = type { ptr, %struct.FFFrameSync, ptr, i32, i32, i32, float, [13 x ptr], ptr, ptr, ptr, [4 x double], [4 x double], [4 x double], i64 }
%struct.FFFrameSync = type { ptr, ptr, i32, %struct.AVRational, i64, ptr, ptr, i32, i32, i8, i8, ptr, i32, i32, i32, i32 }
%struct.AVRational = type { i32, i32 }
%struct.AVFilterLink = type { ptr, ptr, ptr, ptr, i32, i32, i32, i32, %struct.AVRational, i32, i32, i32, %struct.AVChannelLayout, %struct.AVRational, ptr, i32, %struct.AVFilterFormatsConfig, %struct.AVFilterFormatsConfig }
%struct.AVChannelLayout = type { i32, i32, %union.anon.1, ptr }
%union.anon.1 = type { i64 }
%struct.AVFilterFormatsConfig = type { ptr, ptr, ptr, ptr, ptr }
%struct.FilterLink = type { %struct.AVFilterLink, ptr, i64, i64, i32, i32, i64, i64, i64, i64, %struct.AVRational, ptr }
%struct.FFFrameSyncIn = type { i32, i32, %struct.AVRational, ptr, ptr, i64, i64, i8, i8, i32, i32 }

; Function Attrs: inlinehint nounwind uwtable
define internal ptr @ff_filter_link(ptr noundef %0) #5 {
  %2 = alloca ptr, align 8
  store ptr %0, ptr %2, align 8, !tbaa !43
  %3 = load ptr, ptr %2, align 8, !tbaa !43
  ret ptr %3
}

; Function Attrs: nounwind uwtable
define internal i32 @config_output(ptr noundef %0) #0 {
  %2 = alloca i32, align 4
  %3 = alloca ptr, align 8
  %4 = alloca ptr, align 8
  %5 = alloca ptr, align 8
  %6 = alloca ptr, align 8
  %7 = alloca ptr, align 8
  %8 = alloca ptr, align 8
  %9 = alloca ptr, align 8
  %10 = alloca i32, align 4
  %11 = alloca i32, align 4
  store ptr %0, ptr %3, align 8, !tbaa !43
  call void @llvm.lifetime.start.p0(i64 8, ptr %4) #10
  %12 = load ptr, ptr %3, align 8, !tbaa !43
  %13 = getelementptr inbounds nuw %struct.AVFilterLink, ptr %12, i32 0, i32 0
  %14 = load ptr, ptr %13, align 8, !tbaa !65
  store ptr %14, ptr %4, align 8, !tbaa !4
  call void @llvm.lifetime.start.p0(i64 8, ptr %5) #10
  %15 = load ptr, ptr %4, align 8, !tbaa !4
  %16 = getelementptr inbounds nuw %struct.AVFilterContext, ptr %15, i32 0, i32 9
  %17 = load ptr, ptr %16, align 8, !tbaa !9
  store ptr %17, ptr %5, align 8, !tbaa !22
  call void @llvm.lifetime.start.p0(i64 8, ptr %6) #10
  %18 = load ptr, ptr %4, align 8, !tbaa !4
  %19 = getelementptr inbounds nuw %struct.AVFilterContext, ptr %18, i32 0, i32 4
  %20 = load ptr, ptr %19, align 8, !tbaa !52
  %21 = getelementptr inbounds ptr, ptr %20, i64 0
  %22 = load ptr, ptr %21, align 8, !tbaa !43
  store ptr %22, ptr %6, align 8, !tbaa !43
  call void @llvm.lifetime.start.p0(i64 8, ptr %7) #10
  %23 = load ptr, ptr %6, align 8, !tbaa !43
  %24 = call ptr @ff_filter_link(ptr noundef %23)
  store ptr %24, ptr %7, align 8, !tbaa !66
  call void @llvm.lifetime.start.p0(i64 8, ptr %8) #10
  %25 = load ptr, ptr %3, align 8, !tbaa !43
  %26 = call ptr @ff_filter_link(ptr noundef %25)
  store ptr %26, ptr %8, align 8, !tbaa !66
  call void @llvm.lifetime.start.p0(i64 8, ptr %9) #10
  call void @llvm.lifetime.start.p0(i64 4, ptr %10) #10
  %27 = load ptr, ptr %6, align 8, !tbaa !43
  %28 = getelementptr inbounds nuw %struct.AVFilterLink, ptr %27, i32 0, i32 6
  %29 = load i32, ptr %28, align 8, !tbaa !53
  %30 = load ptr, ptr %3, align 8, !tbaa !43
  %31 = getelementptr inbounds nuw %struct.AVFilterLink, ptr %30, i32 0, i32 6
  store i32 %29, ptr %31, align 8, !tbaa !53
  %32 = load ptr, ptr %6, align 8, !tbaa !43
  %33 = getelementptr inbounds nuw %struct.AVFilterLink, ptr %32, i32 0, i32 7
  %34 = load i32, ptr %33, align 4, !tbaa !54
  %35 = load ptr, ptr %3, align 8, !tbaa !43
  %36 = getelementptr inbounds nuw %struct.AVFilterLink, ptr %35, i32 0, i32 7
  store i32 %34, ptr %36, align 4, !tbaa !54
  %37 = load ptr, ptr %3, align 8, !tbaa !43
  %38 = getelementptr inbounds nuw %struct.AVFilterLink, ptr %37, i32 0, i32 13
  %39 = load ptr, ptr %6, align 8, !tbaa !43
  %40 = getelementptr inbounds nuw %struct.AVFilterLink, ptr %39, i32 0, i32 13
  call void @llvm.memcpy.p0.p0.i64(ptr align 8 %38, ptr align 8 %40, i64 8, i1 false), !tbaa.struct !68
  %41 = load ptr, ptr %3, align 8, !tbaa !43
  %42 = getelementptr inbounds nuw %struct.AVFilterLink, ptr %41, i32 0, i32 8
  %43 = load ptr, ptr %6, align 8, !tbaa !43
  %44 = getelementptr inbounds nuw %struct.AVFilterLink, ptr %43, i32 0, i32 8
  call void @llvm.memcpy.p0.p0.i64(ptr align 8 %42, ptr align 8 %44, i64 8, i1 false), !tbaa.struct !68
  %45 = load ptr, ptr %8, align 8, !tbaa !66
  %46 = getelementptr inbounds nuw %struct.FilterLink, ptr %45, i32 0, i32 10
  %47 = load ptr, ptr %7, align 8, !tbaa !66
  %48 = getelementptr inbounds nuw %struct.FilterLink, ptr %47, i32 0, i32 10
  call void @llvm.memcpy.p0.p0.i64(ptr align 8 %46, ptr align 8 %48, i64 8, i1 false), !tbaa.struct !68
  %49 = load ptr, ptr %5, align 8, !tbaa !22
  %50 = getelementptr inbounds nuw %struct.VIFContext, ptr %49, i32 0, i32 1
  %51 = load ptr, ptr %4, align 8, !tbaa !4
  %52 = call i32 @ff_framesync_init(ptr noundef %50, ptr noundef %51, i32 noundef 2)
  store i32 %52, ptr %10, align 4, !tbaa !34
  %53 = icmp slt i32 %52, 0
  br i1 %53, label %54, label %56

54:                                               ; preds = %1
  %55 = load i32, ptr %10, align 4, !tbaa !34
  store i32 %55, ptr %2, align 4
  store i32 1, ptr %11, align 4
  br label %103

56:                                               ; preds = %1
  %57 = load ptr, ptr %5, align 8, !tbaa !22
  %58 = getelementptr inbounds nuw %struct.VIFContext, ptr %57, i32 0, i32 1
  %59 = getelementptr inbounds nuw %struct.FFFrameSync, ptr %58, i32 0, i32 11
  %60 = load ptr, ptr %59, align 8, !tbaa !69
  store ptr %60, ptr %9, align 8, !tbaa !70
  %61 = load ptr, ptr %9, align 8, !tbaa !70
  %62 = getelementptr inbounds %struct.FFFrameSyncIn, ptr %61, i64 0
  %63 = getelementptr inbounds nuw %struct.FFFrameSyncIn, ptr %62, i32 0, i32 2
  %64 = load ptr, ptr %6, align 8, !tbaa !43
  %65 = getelementptr inbounds nuw %struct.AVFilterLink, ptr %64, i32 0, i32 13
  call void @llvm.memcpy.p0.p0.i64(ptr align 8 %63, ptr align 8 %65, i64 8, i1 false), !tbaa.struct !68
  %66 = load ptr, ptr %9, align 8, !tbaa !70
  %67 = getelementptr inbounds %struct.FFFrameSyncIn, ptr %66, i64 1
  %68 = getelementptr inbounds nuw %struct.FFFrameSyncIn, ptr %67, i32 0, i32 2
  %69 = load ptr, ptr %4, align 8, !tbaa !4
  %70 = getelementptr inbounds nuw %struct.AVFilterContext, ptr %69, i32 0, i32 4
  %71 = load ptr, ptr %70, align 8, !tbaa !52
  %72 = getelementptr inbounds ptr, ptr %71, i64 1
  %73 = load ptr, ptr %72, align 8, !tbaa !43
  %74 = getelementptr inbounds nuw %struct.AVFilterLink, ptr %73, i32 0, i32 13
  call void @llvm.memcpy.p0.p0.i64(ptr align 8 %68, ptr align 8 %74, i64 8, i1 false), !tbaa.struct !68
  %75 = load ptr, ptr %9, align 8, !tbaa !70
  %76 = getelementptr inbounds %struct.FFFrameSyncIn, ptr %75, i64 0
  %77 = getelementptr inbounds nuw %struct.FFFrameSyncIn, ptr %76, i32 0, i32 9
  store i32 2, ptr %77, align 4, !tbaa !71
  %78 = load ptr, ptr %9, align 8, !tbaa !70
  %79 = getelementptr inbounds %struct.FFFrameSyncIn, ptr %78, i64 0
  %80 = getelementptr inbounds nuw %struct.FFFrameSyncIn, ptr %79, i32 0, i32 0
  store i32 0, ptr %80, align 8, !tbaa !74
  %81 = load ptr, ptr %9, align 8, !tbaa !70
  %82 = getelementptr inbounds %struct.FFFrameSyncIn, ptr %81, i64 0
  %83 = getelementptr inbounds nuw %struct.FFFrameSyncIn, ptr %82, i32 0, i32 1
  store i32 0, ptr %83, align 4, !tbaa !75
  %84 = load ptr, ptr %9, align 8, !tbaa !70
  %85 = getelementptr inbounds %struct.FFFrameSyncIn, ptr %84, i64 1
  %86 = getelementptr inbounds nuw %struct.FFFrameSyncIn, ptr %85, i32 0, i32 9
  store i32 1, ptr %86, align 4, !tbaa !71
  %87 = load ptr, ptr %9, align 8, !tbaa !70
  %88 = getelementptr inbounds %struct.FFFrameSyncIn, ptr %87, i64 1
  %89 = getelementptr inbounds nuw %struct.FFFrameSyncIn, ptr %88, i32 0, i32 0
  store i32 0, ptr %89, align 8, !tbaa !74
  %90 = load ptr, ptr %9, align 8, !tbaa !70
  %91 = getelementptr inbounds %struct.FFFrameSyncIn, ptr %90, i64 1
  %92 = getelementptr inbounds nuw %struct.FFFrameSyncIn, ptr %91, i32 0, i32 1
  store i32 0, ptr %92, align 4, !tbaa !75
  %93 = load ptr, ptr %5, align 8, !tbaa !22
  %94 = load ptr, ptr %5, align 8, !tbaa !22
  %95 = getelementptr inbounds nuw %struct.VIFContext, ptr %94, i32 0, i32 1
  %96 = getelementptr inbounds nuw %struct.FFFrameSync, ptr %95, i32 0, i32 6
  store ptr %93, ptr %96, align 8, !tbaa !76
  %97 = load ptr, ptr %5, align 8, !tbaa !22
  %98 = getelementptr inbounds nuw %struct.VIFContext, ptr %97, i32 0, i32 1
  %99 = getelementptr inbounds nuw %struct.FFFrameSync, ptr %98, i32 0, i32 5
  store ptr @process_frame, ptr %99, align 8, !tbaa !77
  %100 = load ptr, ptr %5, align 8, !tbaa !22
  %101 = getelementptr inbounds nuw %struct.VIFContext, ptr %100, i32 0, i32 1
  %102 = call i32 @ff_framesync_configure(ptr noundef %101)
  store i32 %102, ptr %2, align 4
  store i32 1, ptr %11, align 4
  br label %103

103:                                              ; preds = %56, %54
  call void @llvm.lifetime.end.p0(i64 4, ptr %10) #10
  call void @llvm.lifetime.end.p0(i64 8, ptr %9) #10
  call void @llvm.lifetime.end.p0(i64 8, ptr %8) #10
  call void @llvm.lifetime.end.p0(i64 8, ptr %7) #10
  call void @llvm.lifetime.end.p0(i64 8, ptr %6) #10
  call void @llvm.lifetime.end.p0(i64 8, ptr %5) #10
  call void @llvm.lifetime.end.p0(i64 8, ptr %4) #10
  %104 = load i32, ptr %2, align 4
  ret i32 %104
}