; Function Attrs: nounwind uwtable
define internal i32 @config_output(ptr noundef captures(none) initializes((40, 56), (96, 104), (264, 272)) %0) #0 {
  %2 = load ptr, ptr %0, align 8, !tbaa !61
  %3 = getelementptr inbounds nuw i8, ptr %2, i64 72
  %4 = load ptr, ptr %3, align 8, !tbaa !4
  %5 = getelementptr inbounds nuw i8, ptr %2, i64 32
  %6 = load ptr, ptr %5, align 8, !tbaa !46
  %7 = load ptr, ptr %6, align 8, !tbaa !47
  %8 = getelementptr inbounds nuw i8, ptr %7, i64 40
  %9 = load i32, ptr %8, align 8, !tbaa !49
  %10 = getelementptr inbounds nuw i8, ptr %0, i64 40
  store i32 %9, ptr %10, align 8, !tbaa !49
  %11 = getelementptr inbounds nuw i8, ptr %7, i64 44
  %12 = load i32, ptr %11, align 4, !tbaa !50
  %13 = getelementptr inbounds nuw i8, ptr %0, i64 44
  store i32 %12, ptr %13, align 4, !tbaa !50
  %14 = getelementptr inbounds nuw i8, ptr %0, i64 96
  %15 = getelementptr inbounds nuw i8, ptr %7, i64 96
  %16 = load i64, ptr %15, align 8
  store i64 %16, ptr %14, align 8
  %17 = getelementptr inbounds nuw i8, ptr %0, i64 48
  %18 = getelementptr inbounds nuw i8, ptr %7, i64 48
  %19 = load i64, ptr %18, align 8
  store i64 %19, ptr %17, align 8
  %20 = getelementptr inbounds nuw i8, ptr %0, i64 264
  %21 = getelementptr inbounds nuw i8, ptr %7, i64 264
  %22 = load i64, ptr %21, align 8
  store i64 %22, ptr %20, align 8
  %23 = getelementptr inbounds nuw i8, ptr %4, i64 8
  %24 = tail call i32 @ff_framesync_init(ptr noundef nonnull %23, ptr noundef %2, i32 noundef 2) #12
  %25 = icmp slt i32 %24, 0
  br i1 %25, label %45, label %26

26:                                               ; preds = %1
  %27 = getelementptr inbounds nuw i8, ptr %4, i64 80
  %28 = load ptr, ptr %27, align 8, !tbaa !62
  %29 = getelementptr inbounds nuw i8, ptr %28, i64 8
  %30 = load i64, ptr %15, align 8
  store i64 %30, ptr %29, align 8
  %31 = getelementptr inbounds nuw i8, ptr %28, i64 64
  %32 = getelementptr inbounds nuw i8, ptr %28, i64 72
  %33 = load ptr, ptr %5, align 8, !tbaa !46
  %34 = getelementptr inbounds nuw i8, ptr %33, i64 8
  %35 = load ptr, ptr %34, align 8, !tbaa !47
  %36 = getelementptr inbounds nuw i8, ptr %35, i64 96
  %37 = load i64, ptr %36, align 8
  store i64 %37, ptr %32, align 8
  %38 = getelementptr inbounds nuw i8, ptr %28, i64 52
  store i32 2, ptr %38, align 4, !tbaa !63
  store i32 0, ptr %28, align 8, !tbaa !66
  %39 = getelementptr inbounds nuw i8, ptr %28, i64 4
  store i32 0, ptr %39, align 4, !tbaa !67
  %40 = getelementptr inbounds nuw i8, ptr %28, i64 116
  store i32 1, ptr %40, align 4, !tbaa !63
  store i32 0, ptr %31, align 8, !tbaa !66
  %41 = getelementptr inbounds nuw i8, ptr %28, i64 68
  store i32 0, ptr %41, align 4, !tbaa !67
  %42 = getelementptr inbounds nuw i8, ptr %4, i64 56
  store ptr %4, ptr %42, align 8, !tbaa !68
  %43 = getelementptr inbounds nuw i8, ptr %4, i64 48
  store ptr @process_frame, ptr %43, align 8, !tbaa !69
  %44 = tail call i32 @ff_framesync_configure(ptr noundef nonnull %23) #12
  br label %45

45:                                               ; preds = %1, %26
  %.0 = phi i32 [ %44, %26 ], [ %24, %1 ]
  ret i32 %.0
}